; Function Attrs: nounwind uwtable
define ptr @Abc_NodeGetPrintName(ptr noundef %0) local_unnamed_addr #0 {
  %2 = getelementptr i8, ptr %0, i64 20
  %.val = load i32, ptr %2, align 4
  %3 = and i32 %.val, 15
  %.not = icmp eq i32 %3, 7
  br i1 %.not, label %.preheader, label %.critedge

.preheader:                                       ; preds = %1
  %4 = getelementptr i8, ptr %0, i64 44
  %.val19 = load i32, ptr %4, align 4
  %5 = icmp sgt i32 %.val19, 0
  br i1 %5, label %.lr.ph, label %.critedge

.lr.ph:                                           ; preds = %.preheader
  %.val21 = load ptr, ptr %0, align 8
  %6 = getelementptr i8, ptr %0, i64 48
  %.val22 = load ptr, ptr %6, align 8
  %7 = getelementptr i8, ptr %.val21, i64 32
  %.val21.val = load ptr, ptr %7, align 8
  %8 = getelementptr i8, ptr %.val21.val, i64 8
  %.val21.val.val = load ptr, ptr %8, align 8
  %wide.trip.count = zext nneg i32 %.val19 to i64
  br label %9

9:                                                ; preds = %.lr.ph, %9
  %indvars.iv = phi i64 [ 0, %.lr.ph ], [ %indvars.iv.next, %9 ]
  %.026 = phi i32 [ 0, %.lr.ph ], [ %spec.select18, %9 ]
  %.01424 = phi ptr [ null, %.lr.ph ], [ %spec.select, %9 ]
  %10 = getelementptr inbounds nuw i32, ptr %.val22, i64 %indvars.iv
  %11 = load i32, ptr %10, align 4
  %12 = sext i32 %11 to i64
  %13 = getelementptr inbounds ptr, ptr %.val21.val.val, i64 %12
  %14 = load ptr, ptr %13, align 8
  %15 = getelementptr i8, ptr %14, i64 20
  %.val20 = load i32, ptr %15, align 4
  %16 = and i32 %.val20, 15
  %.not23 = icmp eq i32 %16, 3
  %spec.select = select i1 %.not23, ptr %14, ptr %.01424
  %17 = zext i1 %.not23 to i32
  %spec.select18 = add nuw nsw i32 %.026, %17
  %indvars.iv.next = add nuw nsw i64 %indvars.iv, 1
  %exitcond.not = icmp eq i64 %indvars.iv.next, %wide.trip.count
  br i1 %exitcond.not, label %.critedge.loopexit, label %9, !llvm.loop !64

.critedge.loopexit:                               ; preds = %9
  %18 = icmp eq i32 %spec.select18, 1
  %19 = select i1 %18, ptr %spec.select, ptr %0
  br label %.critedge

.critedge:                                        ; preds = %.preheader, %.critedge.loopexit, %1
  %.0.lcssa.sink = phi ptr [ %0, %1 ], [ %0, %.preheader ], [ %19, %.critedge.loopexit ]
  %20 = tail call ptr @Abc_ObjName(ptr noundef %.0.lcssa.sink) #19
  ret ptr %20
}